target datalayout = "e-m:e-p270:32:32-p271:32:32-p272:64:64-i64:64-i128:128-f80:128-n8:16:32:64-S128"
target triple = "x86_64-pc-linux-gnu"

%"class.icu_77::RBBINode" = type { i32, ptr, ptr, ptr, ptr, i32, %"class.icu_77::UnicodeString", i32, i32, i8, i32, i8, i8, i8, ptr, ptr, ptr }
%"class.icu_77::UnicodeString" = type { %"class.icu_77::Replaceable", %"union.icu_77::UnicodeString::StackBufferOrFields" }
%"class.icu_77::Replaceable" = type { %"class.icu_77::UObject" }
%"class.icu_77::UObject" = type { ptr }
%"union.icu_77::UnicodeString::StackBufferOrFields" = type { %struct.anon.0, [32 x i8] }
%struct.anon.0 = type { i16, i32, i32, ptr }
%struct.anon = type { i16, [27 x i16] }

@_ZTVN6icu_777UObjectE = available_externally unnamed_addr constant { [5 x ptr] } { [5 x ptr] [ptr null, ptr @_ZTIN6icu_777UObjectE, ptr @_ZN6icu_777UObjectD1Ev, ptr @_ZN6icu_777UObjectD0Ev, ptr @_ZNK6icu_777UObject17getDynamicClassIDEv] }, align 8

; Function Attrs: inlinehint mustprogress nounwind uwtable
define linkonce_odr void @_ZN6icu_777UObjectC2Ev(ptr noundef nonnull align 8 dereferenceable(8) %0) unnamed_addr #2 comdat align 2 {
  %2 = alloca ptr, align 8
  store ptr %0, ptr %2, align 8, !tbaa !60
  %3 = load ptr, ptr %2, align 8
  store ptr getelementptr inbounds inrange(-16, 24) ({ [5 x ptr] }, ptr @_ZTVN6icu_777UObjectE, i32 0, i32 0, i32 2), ptr %3, align 8, !tbaa !52
  ret void
}

; Function Attrs: inlinehint mustprogress nounwind uwtable
define linkonce_odr void @_ZN6icu_7711ReplaceableC2Ev(ptr noundef nonnull align 8 dereferenceable(8) %0) unnamed_addr #2 comdat align 2 {
  %2 = alloca ptr, align 8
  store ptr %0, ptr %2, align 8, !tbaa !58
  %3 = load ptr, ptr %2, align 8
  call void @_ZN6icu_777UObjectC2Ev(ptr noundef nonnull align 8 dereferenceable(8) %3) #10
  store ptr getelementptr inbounds inrange(-16, 88) ({ [13 x ptr] }, ptr @_ZTVN6icu_7711ReplaceableE, i32 0, i32 0, i32 2), ptr %3, align 8, !tbaa !52
  ret void
}

; Function Attrs: inlinehint mustprogress nounwind uwtable
define internal noundef signext i8 @_ZL9U_SUCCESS10UErrorCode(i32 noundef %0) #2 {
  %2 = alloca i32, align 4
  store i32 %0, ptr %2, align 4, !tbaa !15
  %3 = load i32, ptr %2, align 4, !tbaa !15
  %4 = icmp sle i32 %3, 0
  %5 = zext i1 %4 to i8
  ret i8 %5
}

; Function Attrs: inlinehint mustprogress nounwind uwtable
define internal noundef signext i8 @_ZL9U_FAILURE10UErrorCode(i32 noundef %0) #2 {
  %2 = alloca i32, align 4
  store i32 %0, ptr %2, align 4, !tbaa !15
  %3 = load i32, ptr %2, align 4, !tbaa !15
  %4 = icmp sgt i32 %3, 0
  %5 = zext i1 %4 to i8
  ret i8 %5
}

; Function Attrs: inlinehint mustprogress uwtable
define linkonce_odr void @_ZN6icu_7713UnicodeStringC2Ev(ptr noundef nonnull align 8 dereferenceable(64) %0) unnamed_addr #3 comdat align 2 {
  %2 = alloca ptr, align 8
  store ptr %0, ptr %2, align 8, !tbaa !50
  %3 = load ptr, ptr %2, align 8
  call void @_ZN6icu_7711ReplaceableC2Ev(ptr noundef nonnull align 8 dereferenceable(8) %3)
  store ptr getelementptr inbounds inrange(-16, 88) ({ [13 x ptr] }, ptr @_ZTVN6icu_7713UnicodeStringE, i32 0, i32 0, i32 2), ptr %3, align 8, !tbaa !52
  %4 = getelementptr inbounds nuw %"class.icu_77::UnicodeString", ptr %3, i32 0, i32 1
  %5 = getelementptr inbounds nuw %struct.anon, ptr %4, i32 0, i32 0
  store i16 2, ptr %5, align 8, !tbaa !54
  ret void
}

; Function Attrs: mustprogress uwtable
define void @_ZN6icu_778RBBINodeC2ENS0_8NodeTypeER10UErrorCode(ptr noundef nonnull align 8 dereferenceable(160) %0, i32 noundef %1, ptr noundef nonnull align 4 dereferenceable(4) %2) unnamed_addr #1 align 2 personality ptr @__gxx_personality_v0 {
  %4 = alloca ptr, align 8
  %5 = alloca i32, align 4
  %6 = alloca ptr, align 8
  %7 = alloca ptr, align 8
  %8 = alloca i32, align 4
  %9 = alloca ptr, align 8
  %10 = alloca i1, align 1
  %11 = alloca ptr, align 8
  %12 = alloca i1, align 1
  %13 = alloca ptr, align 8
  %14 = alloca i1, align 1
  store ptr %0, ptr %4, align 8, !tbaa !23
  store i32 %1, ptr %5, align 4, !tbaa !25
  store ptr %2, ptr %6, align 8, !tbaa !22
  %15 = load ptr, ptr %4, align 8
  %16 = getelementptr inbounds nuw %"class.icu_77::RBBINode", ptr %15, i32 0, i32 6
  call void @_ZN6icu_7713UnicodeStringC2Ev(ptr noundef nonnull align 8 dereferenceable(64) %16)
  %17 = load ptr, ptr %6, align 8, !tbaa !22
  %18 = load i32, ptr %17, align 4, !tbaa !15
  %19 = invoke noundef signext i8 @_ZL9U_FAILURE10UErrorCode(i32 noundef %18)
          to label %20 unwind label %23

20:                                               ; preds = %3
  %21 = icmp ne i8 %19, 0
  br i1 %21, label %22, label %27

22:                                               ; preds = %20
  br label %132

23:                                               ; preds = %63, %3
  %24 = landingpad { ptr, i32 }
          cleanup
  %25 = extractvalue { ptr, i32 } %24, 0
  store ptr %25, ptr %7, align 8
  %26 = extractvalue { ptr, i32 } %24, 1
  store i32 %26, ptr %8, align 4
  br label %133

27:                                               ; preds = %20
  %28 = load i32, ptr %5, align 4, !tbaa !25
  %29 = getelementptr inbounds nuw %"class.icu_77::RBBINode", ptr %15, i32 0, i32 0
  store i32 %28, ptr %29, align 8, !tbaa !27
  %30 = getelementptr inbounds nuw %"class.icu_77::RBBINode", ptr %15, i32 0, i32 1
  store ptr null, ptr %30, align 8, !tbaa !35
  %31 = getelementptr inbounds nuw %"class.icu_77::RBBINode", ptr %15, i32 0, i32 2
  store ptr null, ptr %31, align 8, !tbaa !36
  %32 = getelementptr inbounds nuw %"class.icu_77::RBBINode", ptr %15, i32 0, i32 3
  store ptr null, ptr %32, align 8, !tbaa !37
  %33 = getelementptr inbounds nuw %"class.icu_77::RBBINode", ptr %15, i32 0, i32 4
  store ptr null, ptr %33, align 8, !tbaa !38
  %34 = getelementptr inbounds nuw %"class.icu_77::RBBINode", ptr %15, i32 0, i32 7
  store i32 0, ptr %34, align 8, !tbaa !39
  %35 = getelementptr inbounds nuw %"class.icu_77::RBBINode", ptr %15, i32 0, i32 8
  store i32 0, ptr %35, align 4, !tbaa !40
  %36 = getelementptr inbounds nuw %"class.icu_77::RBBINode", ptr %15, i32 0, i32 9
  store i8 0, ptr %36, align 8, !tbaa !41
  %37 = getelementptr inbounds nuw %"class.icu_77::RBBINode", ptr %15, i32 0, i32 11
  store i8 0, ptr %37, align 8, !tbaa !42
  %38 = getelementptr inbounds nuw %"class.icu_77::RBBINode", ptr %15, i32 0, i32 12
  store i8 0, ptr %38, align 1, !tbaa !43
  %39 = getelementptr inbounds nuw %"class.icu_77::RBBINode", ptr %15, i32 0, i32 13
  store i8 0, ptr %39, align 2, !tbaa !44
  %40 = getelementptr inbounds nuw %"class.icu_77::RBBINode", ptr %15, i32 0, i32 10
  store i32 0, ptr %40, align 4, !tbaa !45
  %41 = getelementptr inbounds nuw %"class.icu_77::RBBINode", ptr %15, i32 0, i32 5
  store i32 0, ptr %41, align 8, !tbaa !46
  %42 = call noundef ptr @_ZN6icu_777UMemorynwEm(i64 noundef 40) #10
  %43 = icmp eq ptr %42, null
  store i1 false, ptr %10, align 1
  br i1 %43, label %47, label %44

44:                                               ; preds = %27
  store ptr %42, ptr %9, align 8
  store i1 true, ptr %10, align 1
  %45 = load ptr, ptr %6, align 8, !tbaa !22
  invoke void @_ZN6icu_777UVectorC1ER10UErrorCode(ptr noundef nonnull align 8 dereferenceable(40) %42, ptr noundef nonnull align 4 dereferenceable(4) %45)
          to label %46 unwind label %85

46:                                               ; preds = %44
  br label %47

47:                                               ; preds = %46, %27
  %48 = phi ptr [ %42, %46 ], [ null, %27 ]
  %49 = getelementptr inbounds nuw %"class.icu_77::RBBINode", ptr %15, i32 0, i32 14
  store ptr %48, ptr %49, align 8, !tbaa !47
  %50 = call noundef ptr @_ZN6icu_777UMemorynwEm(i64 noundef 40) #10
  %51 = icmp eq ptr %50, null
  store i1 false, ptr %12, align 1
  br i1 %51, label %55, label %52

52:                                               ; preds = %47
  store ptr %50, ptr %11, align 8
  store i1 true, ptr %12, align 1
  %53 = load ptr, ptr %6, align 8, !tbaa !22
  invoke void @_ZN6icu_777UVectorC1ER10UErrorCode(ptr noundef nonnull align 8 dereferenceable(40) %50, ptr noundef nonnull align 4 dereferenceable(4) %53)
          to label %54 unwind label %93

54:                                               ; preds = %52
  br label %55

55:                                               ; preds = %54, %47
  %56 = phi ptr [ %50, %54 ], [ null, %47 ]
  %57 = getelementptr inbounds nuw %"class.icu_77::RBBINode", ptr %15, i32 0, i32 15
  store ptr %56, ptr %57, align 8, !tbaa !48
  %58 = call noundef ptr @_ZN6icu_777UMemorynwEm(i64 noundef 40) #10
  %59 = icmp eq ptr %58, null
  store i1 false, ptr %14, align 1
  br i1 %59, label %63, label %60

60:                                               ; preds = %55
  store ptr %58, ptr %13, align 8
  store i1 true, ptr %14, align 1
  %61 = load ptr, ptr %6, align 8, !tbaa !22
  invoke void @_ZN6icu_777UVectorC1ER10UErrorCode(ptr noundef nonnull align 8 dereferenceable(40) %58, ptr noundef nonnull align 4 dereferenceable(4) %61)
          to label %62 unwind label %101

62:                                               ; preds = %60
  br label %63

63:                                               ; preds = %62, %55
  %64 = phi ptr [ %58, %62 ], [ null, %55 ]
  %65 = getelementptr inbounds nuw %"class.icu_77::RBBINode", ptr %15, i32 0, i32 16
  store ptr %64, ptr %65, align 8, !tbaa !49
  %66 = load ptr, ptr %6, align 8, !tbaa !22
  %67 = load i32, ptr %66, align 4, !tbaa !15
  %68 = invoke noundef signext i8 @_ZL9U_SUCCESS10UErrorCode(i32 noundef %67)
          to label %69 unwind label %23

69:                                               ; preds = %63
  %70 = icmp ne i8 %68, 0
  br i1 %70, label %71, label %109

71:                                               ; preds = %69
  %72 = getelementptr inbounds nuw %"class.icu_77::RBBINode", ptr %15, i32 0, i32 14
  %73 = load ptr, ptr %72, align 8, !tbaa !47
  %74 = icmp eq ptr %73, null
  br i1 %74, label %83, label %75

75:                                               ; preds = %71
  %76 = getelementptr inbounds nuw %"class.icu_77::RBBINode", ptr %15, i32 0, i32 15
  %77 = load ptr, ptr %76, align 8, !tbaa !48
  %78 = icmp eq ptr %77, null
  br i1 %78, label %83, label %79

79:                                               ; preds = %75
  %80 = getelementptr inbounds nuw %"class.icu_77::RBBINode", ptr %15, i32 0, i32 16
  %81 = load ptr, ptr %80, align 8, !tbaa !49
  %82 = icmp eq ptr %81, null
  br i1 %82, label %83, label %109

83:                                               ; preds = %79, %75, %71
  %84 = load ptr, ptr %6, align 8, !tbaa !22
  store i32 7, ptr %84, align 4, !tbaa !15
  br label %109

85:                                               ; preds = %44
  %86 = landingpad { ptr, i32 }
          cleanup
  %87 = extractvalue { ptr, i32 } %86, 0
  store ptr %87, ptr %7, align 8
  %88 = extractvalue { ptr, i32 } %86, 1
  store i32 %88, ptr %8, align 4
  %89 = load i1, ptr %10, align 1
  br i1 %89, label %90, label %92

90:                                               ; preds = %85
  %91 = load ptr, ptr %9, align 8
  call void @_ZN6icu_777UMemorydlEPv(ptr noundef %91) #10
  br label %92

92:                                               ; preds = %90, %85
  br label %133

93:                                               ; preds = %52
  %94 = landingpad { ptr, i32 }
          cleanup
  %95 = extractvalue { ptr, i32 } %94, 0
  store ptr %95, ptr %7, align 8
  %96 = extractvalue { ptr, i32 } %94, 1
  store i32 %96, ptr %8, align 4
  %97 = load i1, ptr %12, align 1
  br i1 %97, label %98, label %100

98:                                               ; preds = %93
  %99 = load ptr, ptr %11, align 8
  call void @_ZN6icu_777UMemorydlEPv(ptr noundef %99) #10
  br label %100

100:                                              ; preds = %98, %93
  br label %133

101:                                              ; preds = %60
  %102 = landingpad { ptr, i32 }
          cleanup
  %103 = extractvalue { ptr, i32 } %102, 0
  store ptr %103, ptr %7, align 8
  %104 = extractvalue { ptr, i32 } %102, 1
  store i32 %104, ptr %8, align 4
  %105 = load i1, ptr %14, align 1
  br i1 %105, label %106, label %108

106:                                              ; preds = %101
  %107 = load ptr, ptr %13, align 8
  call void @_ZN6icu_777UMemorydlEPv(ptr noundef %107) #10
  br label %108

108:                                              ; preds = %106, %101
  br label %133

109:                                              ; preds = %83, %79, %69
  %110 = load i32, ptr %5, align 4, !tbaa !25
  %111 = icmp eq i32 %110, 8
  br i1 %111, label %112, label %114

112:                                              ; preds = %109
  %113 = getelementptr inbounds nuw %"class.icu_77::RBBINode", ptr %15, i32 0, i32 5
  store i32 4, ptr %113, align 8, !tbaa !46
  br label %132

114:                                              ; preds = %109
  %115 = load i32, ptr %5, align 4, !tbaa !25
  %116 = icmp eq i32 %115, 9
  br i1 %116, label %117, label %119

117:                                              ; preds = %114
  %118 = getelementptr inbounds nuw %"class.icu_77::RBBINode", ptr %15, i32 0, i32 5
  store i32 3, ptr %118, align 8, !tbaa !46
  br label %131

119:                                              ; preds = %114
  %120 = load i32, ptr %5, align 4, !tbaa !25
  %121 = icmp eq i32 %120, 7
  br i1 %121, label %122, label %124

122:                                              ; preds = %119
  %123 = getelementptr inbounds nuw %"class.icu_77::RBBINode", ptr %15, i32 0, i32 5
  store i32 1, ptr %123, align 8, !tbaa !46
  br label %130

124:                                              ; preds = %119
  %125 = load i32, ptr %5, align 4, !tbaa !25
  %126 = icmp eq i32 %125, 15
  br i1 %126, label %127, label %129

127:                                              ; preds = %124
  %128 = getelementptr inbounds nuw %"class.icu_77::RBBINode", ptr %15, i32 0, i32 5
  store i32 2, ptr %128, align 8, !tbaa !46
  br label %129

129:                                              ; preds = %127, %124
  br label %130

130:                                              ; preds = %129, %122
  br label %131

131:                                              ; preds = %130, %117
  br label %132

132:                                              ; preds = %22, %131, %112
  ret void

133:                                              ; preds = %108, %100, %92, %23
  call void @_ZN6icu_7713UnicodeStringD1Ev(ptr noundef nonnull align 8 dereferenceable(64) %16) #10
  br label %134

134:                                              ; preds = %133
  %135 = load ptr, ptr %7, align 8
  %136 = load i32, ptr %8, align 4
  %137 = insertvalue { ptr, i32 } poison, ptr %135, 0
  %138 = insertvalue { ptr, i32 } %137, i32 %136, 1
  resume { ptr, i32 } %138
}