; Function Attrs: mustprogress uwtable
define void @_ZN6icu_778RBBINodeC2ENS0_8NodeTypeER10UErrorCode(ptr noundef nonnull align 8 dereferenceable(160) initializes((48, 58)) %0, i32 noundef %1, ptr noundef nonnull align 4 dereferenceable(4) %2) unnamed_addr #1 align 2 personality ptr @__gxx_personality_v0 {
  %4 = getelementptr inbounds nuw i8, ptr %0, i64 48
  store ptr getelementptr inbounds nuw inrange(-16, 88) (i8, ptr @_ZTVN6icu_7713UnicodeStringE, i64 16), ptr %4, align 8, !tbaa !15
  %5 = getelementptr inbounds nuw i8, ptr %0, i64 56
  store i16 2, ptr %5, align 8, !tbaa !17
  %6 = load i32, ptr %2, align 4, !tbaa !13
  %7 = icmp slt i32 %6, 1
  br i1 %7, label %8, label %45

8:                                                ; preds = %3
  store i32 %1, ptr %0, align 8, !tbaa !18
  %9 = getelementptr inbounds nuw i8, ptr %0, i64 8
  %10 = getelementptr inbounds nuw i8, ptr %0, i64 112
  %11 = getelementptr inbounds nuw i8, ptr %0, i64 124
  %12 = getelementptr inbounds nuw i8, ptr %0, i64 40
  tail call void @llvm.memset.p0.i64(ptr noundef nonnull align 8 dereferenceable(36) %9, i8 0, i64 36, i1 false)
  tail call void @llvm.memset.p0.i64(ptr noundef nonnull align 8 dereferenceable(9) %10, i8 0, i64 9, i1 false)
  tail call void @llvm.memset.p0.i64(ptr noundef nonnull align 4 dereferenceable(7) %11, i8 0, i64 7, i1 false)
  %13 = tail call noundef ptr @_ZN6icu_777UMemorynwEm(i64 noundef 40) #12
  %14 = icmp eq ptr %13, null
  br i1 %14, label %16, label %15

15:                                               ; preds = %8
  invoke void @_ZN6icu_777UVectorC1ER10UErrorCode(ptr noundef nonnull align 8 dereferenceable(40) %13, ptr noundef nonnull align 4 dereferenceable(4) %2)
          to label %16 unwind label %36

16:                                               ; preds = %15, %8
  %17 = getelementptr inbounds nuw i8, ptr %0, i64 136
  store ptr %13, ptr %17, align 8, !tbaa !28
  %18 = tail call noundef ptr @_ZN6icu_777UMemorynwEm(i64 noundef 40) #12
  %19 = icmp eq ptr %18, null
  br i1 %19, label %21, label %20

20:                                               ; preds = %16
  invoke void @_ZN6icu_777UVectorC1ER10UErrorCode(ptr noundef nonnull align 8 dereferenceable(40) %18, ptr noundef nonnull align 4 dereferenceable(4) %2)
          to label %21 unwind label %38

21:                                               ; preds = %20, %16
  %22 = getelementptr inbounds nuw i8, ptr %0, i64 144
  store ptr %18, ptr %22, align 8, !tbaa !29
  %23 = tail call noundef ptr @_ZN6icu_777UMemorynwEm(i64 noundef 40) #12
  %24 = icmp eq ptr %23, null
  br i1 %24, label %26, label %25

25:                                               ; preds = %21
  invoke void @_ZN6icu_777UVectorC1ER10UErrorCode(ptr noundef nonnull align 8 dereferenceable(40) %23, ptr noundef nonnull align 4 dereferenceable(4) %2)
          to label %26 unwind label %40

26:                                               ; preds = %25, %21
  %27 = getelementptr inbounds nuw i8, ptr %0, i64 152
  store ptr %23, ptr %27, align 8, !tbaa !30
  %28 = load i32, ptr %2, align 4, !tbaa !13
  %29 = icmp sgt i32 %28, 0
  br i1 %29, label %42, label %30

30:                                               ; preds = %26
  %31 = load ptr, ptr %17, align 8, !tbaa !28
  %32 = icmp eq ptr %31, null
  %33 = load ptr, ptr %22, align 8
  %34 = icmp eq ptr %33, null
  %or.cond = select i1 %32, i1 true, i1 %34
  %or.cond28 = or i1 %24, %or.cond
  br i1 %or.cond28, label %35, label %42

35:                                               ; preds = %30
  store i32 7, ptr %2, align 4, !tbaa !13
  br label %42

36:                                               ; preds = %15
  %37 = landingpad { ptr, i32 }
          cleanup
  br label %46

38:                                               ; preds = %20
  %39 = landingpad { ptr, i32 }
          cleanup
  br label %46

40:                                               ; preds = %25
  %41 = landingpad { ptr, i32 }
          cleanup
  br label %46

42:                                               ; preds = %30, %35, %26
  %switch.tableidx = add i32 %1, -7
  %43 = icmp ult i32 %switch.tableidx, 9
  br i1 %43, label %switch.hole_check, label %45

switch.hole_check:                                ; preds = %42
  %switch.maskindex = trunc nuw i32 %switch.tableidx to i16
  %switch.shifted = lshr i16 263, %switch.maskindex
  %switch.lobit = trunc i16 %switch.shifted to i1
  br i1 %switch.lobit, label %switch.lookup, label %45

switch.lookup:                                    ; preds = %switch.hole_check
  %44 = zext nneg i32 %switch.tableidx to i64
  %switch.gep = getelementptr inbounds nuw [9 x i32], ptr @switch.table._ZN6icu_778RBBINodeC2ENS0_8NodeTypeER10UErrorCode, i64 0, i64 %44
  %switch.load = load i32, ptr %switch.gep, align 4
  store i32 %switch.load, ptr %12, align 8, !tbaa !31
  br label %45

45:                                               ; preds = %switch.hole_check, %42, %switch.lookup, %3
  ret void

46:                                               ; preds = %40, %38, %36
  %.sink29 = phi ptr [ %23, %40 ], [ %18, %38 ], [ %13, %36 ]
  %.pn = phi { ptr, i32 } [ %41, %40 ], [ %39, %38 ], [ %37, %36 ]
  tail call void @_ZN6icu_777UMemorydlEPv(ptr noundef nonnull %.sink29) #12
  tail call void @_ZN6icu_7713UnicodeStringD1Ev(ptr noundef nonnull align 8 dereferenceable(64) %4) #12
  resume { ptr, i32 } %.pn
}